target datalayout = "e-m:e-p270:32:32-p271:32:32-p272:64:64-i64:64-i128:128-f80:128-n8:16:32:64-S128"
target triple = "x86_64-pc-linux-gnu"

%class.anon.723 = type { i8 }

@.str.493 = private unnamed_addr constant [6 x i8] c"int64\00", align 1

; Function Attrs: mustprogress uwtable
define internal void @_ZL9pushInt64P9lua_Statel(ptr noundef %0, i64 noundef %1) #4 {
  %3 = alloca ptr, align 8
  %4 = alloca i64, align 8
  %5 = alloca ptr, align 8
  store ptr %0, ptr %3, align 8
  store i64 %1, ptr %4, align 8
  %6 = load ptr, ptr %3, align 8
  %7 = call noundef ptr @_Z21lua_newuserdatataggedP9lua_Statemi(ptr noundef %6, i64 noundef 8, i32 noundef 1)
  store ptr %7, ptr %5, align 8
  %8 = load ptr, ptr %3, align 8
  %9 = call noundef i32 @_Z12lua_getfieldP9lua_StateiPKc(ptr noundef %8, i32 noundef -10000, ptr noundef @.str.493)
  %10 = load ptr, ptr %3, align 8
  %11 = call noundef i32 @_Z16lua_setmetatableP9lua_Statei(ptr noundef %10, i32 noundef -2)
  %12 = load i64, ptr %4, align 8
  %13 = load ptr, ptr %5, align 8
  store i64 %12, ptr %13, align 8
  ret void
}

; Function Attrs: mustprogress uwtable
define internal noundef i64 @_ZL8getInt64P9lua_Statei(ptr noundef %0, i32 noundef %1) #4 {
  %3 = alloca i64, align 8
  %4 = alloca ptr, align 8
  %5 = alloca i32, align 4
  %6 = alloca ptr, align 8
  store ptr %0, ptr %4, align 8
  store i32 %1, ptr %5, align 4
  %7 = load ptr, ptr %4, align 8
  %8 = load i32, ptr %5, align 4
  %9 = call noundef ptr @_Z20lua_touserdatataggedP9lua_Stateii(ptr noundef %7, i32 noundef %8, i32 noundef 1)
  store ptr %9, ptr %6, align 8
  %10 = load ptr, ptr %6, align 8
  %11 = icmp ne ptr %10, null
  br i1 %11, label %12, label %15

12:                                               ; preds = %2
  %13 = load ptr, ptr %6, align 8
  %14 = load i64, ptr %13, align 8
  store i64 %14, ptr %3, align 8
  br label %27

15:                                               ; preds = %2
  %16 = load ptr, ptr %4, align 8
  %17 = load i32, ptr %5, align 4
  %18 = call noundef i32 @_Z12lua_isnumberP9lua_Statei(ptr noundef %16, i32 noundef %17)
  %19 = icmp ne i32 %18, 0
  br i1 %19, label %20, label %25

20:                                               ; preds = %15
  %21 = load ptr, ptr %4, align 8
  %22 = load i32, ptr %5, align 4
  %23 = call noundef i32 @_Z14lua_tointegerxP9lua_StateiPi(ptr noundef %21, i32 noundef %22, ptr noundef null)
  %24 = sext i32 %23 to i64
  store i64 %24, ptr %3, align 8
  br label %27

25:                                               ; preds = %15
  %26 = load ptr, ptr %4, align 8
  call void @_Z15luaL_typeerrorLP9lua_StateiPKc(ptr noundef %26, i32 noundef 1, ptr noundef @.str.493) #19
  unreachable

27:                                               ; preds = %20, %12
  %28 = load i64, ptr %3, align 8
  ret i64 %28
}

; Function Attrs: mustprogress uwtable
define internal noundef i32 @"_ZZZL21DOCTEST_ANON_FUNC_128vENK3$_0clEP9lua_StateENKUlS1_E8_clES1_"(ptr noundef nonnull align 1 dereferenceable(1) %0, ptr noundef %1) #4 align 2 {
  %3 = alloca ptr, align 8
  %4 = alloca ptr, align 8
  store ptr %0, ptr %3, align 8
  store ptr %1, ptr %4, align 8
  %5 = load ptr, ptr %4, align 8
  %6 = load ptr, ptr %4, align 8
  %7 = call noundef i64 @_ZL8getInt64P9lua_Statei(ptr noundef %6, i32 noundef 1)
  %8 = sitofp i64 %7 to double
  %9 = load ptr, ptr %4, align 8
  %10 = call noundef i64 @_ZL8getInt64P9lua_Statei(ptr noundef %9, i32 noundef 2)
  %11 = sitofp i64 %10 to double
  %12 = fdiv double %8, %11
  %13 = call double @llvm.floor.f64(double %12)
  %14 = fptosi double %13 to i64
  call void @_ZL9pushInt64P9lua_Statel(ptr noundef %5, i64 noundef %14)
  ret i32 1
}

; Function Attrs: mustprogress uwtable
define internal noundef i32 @"_ZZZL21DOCTEST_ANON_FUNC_128vENK3$_0clEP9lua_StateENUlS1_E8_8__invokeES1_"(ptr noundef %0) #4 align 2 {
  %2 = alloca ptr, align 8
  %3 = alloca %class.anon.723, align 1
  store ptr %0, ptr %2, align 8
  %4 = load ptr, ptr %2, align 8
  %5 = call noundef i32 @"_ZZZL21DOCTEST_ANON_FUNC_128vENK3$_0clEP9lua_StateENKUlS1_E8_clES1_"(ptr noundef nonnull align 1 dereferenceable(1) %3, ptr noundef %4)
  ret i32 %5
}